; Function Attrs: mustprogress uwtable
define void @_ZN9grpc_core15metadata_detail10UnknownMap6AppendESt17basic_string_viewIcSt11char_traitsIcEENS_5SliceE(ptr noundef nonnull align 8 dereferenceable(24) %this, i64 %key.coerce0, ptr %key.coerce1, ptr nocapture noundef readonly %value) local_unnamed_addr #3 align 2 personality ptr @__gxx_personality_v0 {
entry:
  %ref.tmp.i1.i.i.i.i = alloca %struct.grpc_slice, align 8
  %ref.tmp.i.i.i.i.i = alloca %struct.grpc_slice, align 8
  %ref.tmp = alloca %"class.grpc_core::Slice", align 8
  %ref.tmp2 = alloca %"class.grpc_core::Slice", align 8
  call void @grpc_slice_from_copied_buffer(ptr nonnull sret(%struct.grpc_slice) align 8 %ref.tmp, ptr noundef %key.coerce1, i64 noundef %key.coerce0)
  %0 = load ptr, ptr %value, align 8, !noalias !4
  %cmp.i.i = icmp ugt ptr %0, inttoptr (i64 1 to ptr)
  br i1 %cmp.i.i, label %if.then.i.i, label %invoke.cont

if.then.i.i:                                      ; preds = %entry
  %1 = atomicrmw add ptr %0, i64 1 monotonic, align 8, !noalias !4
  br label %invoke.cont

invoke.cont:                                      ; preds = %if.then.i.i, %entry
  call void @llvm.memcpy.p0.p0.i64(ptr noundef nonnull align 8 dereferenceable(32) %ref.tmp2, ptr noundef nonnull align 8 dereferenceable(32) %value, i64 32, i1 false)
  %call.i2 = invoke noundef ptr @_ZN9grpc_core13ChunkedVectorISt4pairINS_5SliceES2_ELm10EE10AppendSlotEv(ptr noundef nonnull align 8 dereferenceable(24) %this)
          to label %_ZN9grpc_core5SliceD2Ev.exit11 unwind label %lpad3

_ZN9grpc_core5SliceD2Ev.exit11:                   ; preds = %invoke.cont
  call void @llvm.lifetime.start.p0(i64 32, ptr nonnull %ref.tmp.i.i.i.i.i)
  call void @llvm.memcpy.p0.p0.i64(ptr noundef nonnull align 8 dereferenceable(32) %ref.tmp.i.i.i.i.i, ptr noundef nonnull align 8 dereferenceable(32) %ref.tmp, i64 32, i1 false)
  call void @llvm.memcpy.p0.p0.i64(ptr noundef nonnull align 8 dereferenceable(32) %call.i2, ptr noundef nonnull align 8 dereferenceable(32) %ref.tmp.i.i.i.i.i, i64 32, i1 false)
  call void @llvm.lifetime.end.p0(i64 32, ptr nonnull %ref.tmp.i.i.i.i.i)
  %second.i.i.i.i = getelementptr inbounds i8, ptr %call.i2, i64 32
  call void @llvm.lifetime.start.p0(i64 32, ptr nonnull %ref.tmp.i1.i.i.i.i)
  call void @llvm.memcpy.p0.p0.i64(ptr noundef nonnull align 8 dereferenceable(32) %ref.tmp.i1.i.i.i.i, ptr noundef nonnull align 8 dereferenceable(32) %ref.tmp2, i64 32, i1 false)
  call void @llvm.memcpy.p0.p0.i64(ptr noundef nonnull align 8 dereferenceable(32) %second.i.i.i.i, ptr noundef nonnull align 8 dereferenceable(32) %ref.tmp.i1.i.i.i.i, i64 32, i1 false)
  call void @llvm.lifetime.end.p0(i64 32, ptr nonnull %ref.tmp.i1.i.i.i.i)
  ret void

lpad3:                                            ; preds = %invoke.cont
  %2 = landingpad { ptr, i32 }
          cleanup
  call void @_ZN9grpc_core5SliceD2Ev(ptr noundef nonnull align 8 dereferenceable(32) %ref.tmp2) #18
  call void @_ZN9grpc_core5SliceD2Ev(ptr noundef nonnull align 8 dereferenceable(32) %ref.tmp) #18
  resume { ptr, i32 } %2
}